target datalayout = "e-m:e-p270:32:32-p271:32:32-p272:64:64-i64:64-i128:128-f80:128-n8:16:32:64-S128"
target triple = "x86_64-pc-linux-gnu"

%"class.cv::GCompiled::Priv" = type { %"class.std::vector", %"class.std::vector", %"class.std::unique_ptr" }
%"class.std::vector" = type { %"struct.std::_Vector_base" }
%"struct.std::_Vector_base" = type { %"struct.std::_Vector_base<cv::util::variant<cv::util::monostate, cv::GMatDesc, cv::GScalarDesc, cv::GArrayDesc, cv::GOpaqueDesc, cv::GFrameDesc>, std::allocator<cv::util::variant<cv::util::monostate, cv::GMatDesc, cv::GScalarDesc, cv::GArrayDesc, cv::GOpaqueDesc, cv::GFrameDesc>>>::_Vector_impl" }
%"struct.std::_Vector_base<cv::util::variant<cv::util::monostate, cv::GMatDesc, cv::GScalarDesc, cv::GArrayDesc, cv::GOpaqueDesc, cv::GFrameDesc>, std::allocator<cv::util::variant<cv::util::monostate, cv::GMatDesc, cv::GScalarDesc, cv::GArrayDesc, cv::GOpaqueDesc, cv::GFrameDesc>>>::_Vector_impl" = type { %"struct.std::_Vector_base<cv::util::variant<cv::util::monostate, cv::GMatDesc, cv::GScalarDesc, cv::GArrayDesc, cv::GOpaqueDesc, cv::GFrameDesc>, std::allocator<cv::util::variant<cv::util::monostate, cv::GMatDesc, cv::GScalarDesc, cv::GArrayDesc, cv::GOpaqueDesc, cv::GFrameDesc>>>::_Vector_impl_data" }
%"struct.std::_Vector_base<cv::util::variant<cv::util::monostate, cv::GMatDesc, cv::GScalarDesc, cv::GArrayDesc, cv::GOpaqueDesc, cv::GFrameDesc>, std::allocator<cv::util::variant<cv::util::monostate, cv::GMatDesc, cv::GScalarDesc, cv::GArrayDesc, cv::GOpaqueDesc, cv::GFrameDesc>>>::_Vector_impl_data" = type { ptr, ptr, ptr }
%"class.std::unique_ptr" = type { %"struct.std::__uniq_ptr_data" }
%"struct.std::__uniq_ptr_data" = type { %"class.std::__uniq_ptr_impl" }
%"class.std::__uniq_ptr_impl" = type { %"class.std::tuple" }
%"class.std::tuple" = type { %"struct.std::_Tuple_impl" }
%"struct.std::_Tuple_impl" = type { %"struct.std::_Head_base.1" }
%"struct.std::_Head_base.1" = type { ptr }
%"class.std::logic_error" = type { %"class.std::exception", %"struct.std::__cow_string" }
%"class.std::exception" = type { ptr }
%"struct.std::__cow_string" = type { %union.anon }
%union.anon = type { ptr }
%"struct.cv::gimpl::GRuntimeArgs" = type { %"class.std::vector.2", %"class.std::vector.7" }
%"class.std::vector.2" = type { %"struct.std::_Vector_base.3" }
%"struct.std::_Vector_base.3" = type { %"struct.std::_Vector_base<cv::GRunArg, std::allocator<cv::GRunArg>>::_Vector_impl" }
%"struct.std::_Vector_base<cv::GRunArg, std::allocator<cv::GRunArg>>::_Vector_impl" = type { %"struct.std::_Vector_base<cv::GRunArg, std::allocator<cv::GRunArg>>::_Vector_impl_data" }
%"struct.std::_Vector_base<cv::GRunArg, std::allocator<cv::GRunArg>>::_Vector_impl_data" = type { ptr, ptr, ptr }
%"class.std::vector.7" = type { %"struct.std::_Vector_base.8" }
%"struct.std::_Vector_base.8" = type { %"struct.std::_Vector_base<cv::util::variant<cv::UMat *, cv::Mat *, cv::RMat *, cv::Scalar_<double> *, cv::MediaFrame *, cv::detail::VectorRef, cv::detail::OpaqueRef>, std::allocator<cv::util::variant<cv::UMat *, cv::Mat *, cv::RMat *, cv::Scalar_<double> *, cv::MediaFrame *, cv::detail::VectorRef, cv::detail::OpaqueRef>>>::_Vector_impl" }
%"struct.std::_Vector_base<cv::util::variant<cv::UMat *, cv::Mat *, cv::RMat *, cv::Scalar_<double> *, cv::MediaFrame *, cv::detail::VectorRef, cv::detail::OpaqueRef>, std::allocator<cv::util::variant<cv::UMat *, cv::Mat *, cv::RMat *, cv::Scalar_<double> *, cv::MediaFrame *, cv::detail::VectorRef, cv::detail::OpaqueRef>>>::_Vector_impl" = type { %"struct.std::_Vector_base<cv::util::variant<cv::UMat *, cv::Mat *, cv::RMat *, cv::Scalar_<double> *, cv::MediaFrame *, cv::detail::VectorRef, cv::detail::OpaqueRef>, std::allocator<cv::util::variant<cv::UMat *, cv::Mat *, cv::RMat *, cv::Scalar_<double> *, cv::MediaFrame *, cv::detail::VectorRef, cv::detail::OpaqueRef>>>::_Vector_impl_data" }
%"struct.std::_Vector_base<cv::util::variant<cv::UMat *, cv::Mat *, cv::RMat *, cv::Scalar_<double> *, cv::MediaFrame *, cv::detail::VectorRef, cv::detail::OpaqueRef>, std::allocator<cv::util::variant<cv::UMat *, cv::Mat *, cv::RMat *, cv::Scalar_<double> *, cv::MediaFrame *, cv::detail::VectorRef, cv::detail::OpaqueRef>>>::_Vector_impl_data" = type { ptr, ptr, ptr }

@.str = private unnamed_addr constant [49 x i8] c"This object was compiled for different metadata!\00", align 1

; Function Attrs: mustprogress uwtable
define void @_ZNK2cv9GCompiled4Priv9checkArgsERKNS_5gimpl12GRuntimeArgsE(ptr noundef nonnull align 8 dereferenceable(56) %0, ptr noundef nonnull align 8 dereferenceable(48) %1) #4 align 2 personality ptr @__gxx_personality_v0 {
  %3 = alloca ptr, align 8
  %4 = alloca ptr, align 8
  %5 = alloca %"class.std::logic_error", align 8
  %6 = alloca ptr, align 8
  %7 = alloca i32, align 4
  store ptr %0, ptr %3, align 8, !tbaa !3
  store ptr %1, ptr %4, align 8, !tbaa !20
  %8 = load ptr, ptr %3, align 8
  %9 = getelementptr inbounds nuw %"class.cv::GCompiled::Priv", ptr %8, i32 0, i32 0
  %10 = load ptr, ptr %4, align 8, !tbaa !20
  %11 = getelementptr inbounds nuw %"struct.cv::gimpl::GRuntimeArgs", ptr %10, i32 0, i32 0
  %12 = call noundef zeroext i1 @_ZN2cv12can_describeERKSt6vectorINS_4util7variantIJNS1_9monostateENS_8GMatDescENS_11GScalarDescENS_10GArrayDescENS_11GOpaqueDescENS_10GFrameDescEEEESaIS9_EERKS0_INS_7GRunArgESaISE_EE(ptr noundef nonnull align 8 dereferenceable(24) %9, ptr noundef nonnull align 8 dereferenceable(24) %11)
  br i1 %12, label %19, label %13

13:                                               ; preds = %2
  call void @llvm.lifetime.start.p0(i64 16, ptr %5) #3
  call void @_ZNSt11logic_errorC1EPKc(ptr noundef nonnull align 8 dereferenceable(16) %5, ptr noundef @.str)
  invoke void @_ZN2cv4util11throw_errorISt11logic_errorEEvOT_(ptr noundef nonnull align 8 dereferenceable(16) %5) #21
          to label %14 unwind label %15

14:                                               ; preds = %13
  unreachable

15:                                               ; preds = %13
  %16 = landingpad { ptr, i32 }
          cleanup
  %17 = extractvalue { ptr, i32 } %16, 0
  store ptr %17, ptr %6, align 8
  %18 = extractvalue { ptr, i32 } %16, 1
  store i32 %18, ptr %7, align 4
  call void @_ZNSt11logic_errorD1Ev(ptr noundef nonnull align 8 dereferenceable(16) %5) #3
  call void @llvm.lifetime.end.p0(i64 16, ptr %5) #3
  br label %22

19:                                               ; preds = %2
  %20 = load ptr, ptr %4, align 8, !tbaa !20
  %21 = getelementptr inbounds nuw %"struct.cv::gimpl::GRuntimeArgs", ptr %20, i32 0, i32 0
  call void @_ZN2cv19validate_input_argsERKSt6vectorINS_7GRunArgESaIS1_EE(ptr noundef nonnull align 8 dereferenceable(24) %21)
  ret void

22:                                               ; preds = %15
  %23 = load ptr, ptr %6, align 8
  %24 = load i32, ptr %7, align 4
  %25 = insertvalue { ptr, i32 } poison, ptr %23, 0
  %26 = insertvalue { ptr, i32 } %25, i32 %24, 1
  resume { ptr, i32 } %26
}