; Function Attrs: mustprogress uwtable
define void @_ZNK2cv9GCompiled4Priv9checkArgsERKNS_5gimpl12GRuntimeArgsE(ptr noundef nonnull align 8 dereferenceable(56) %0, ptr noundef nonnull align 8 dereferenceable(48) %1) local_unnamed_addr #3 align 2 personality ptr @__gxx_personality_v0 {
  %3 = alloca %"class.std::logic_error", align 8
  %4 = tail call noundef zeroext i1 @_ZN2cv12can_describeERKSt6vectorINS_4util7variantIJNS1_9monostateENS_8GMatDescENS_11GScalarDescENS_10GArrayDescENS_11GOpaqueDescENS_10GFrameDescEEEESaIS9_EERKS0_INS_7GRunArgESaISE_EE(ptr noundef nonnull align 8 dereferenceable(24) %0, ptr noundef nonnull align 8 dereferenceable(24) %1)
  br i1 %4, label %9, label %5

5:                                                ; preds = %2
  call void @llvm.lifetime.start.p0(i64 16, ptr nonnull %3) #25
  call void @_ZNSt11logic_errorC1EPKc(ptr noundef nonnull align 8 dereferenceable(16) %3, ptr noundef nonnull @.str)
  invoke void @_ZN2cv4util11throw_errorISt11logic_errorEEvOT_(ptr noundef nonnull align 8 dereferenceable(16) %3) #28
          to label %6 unwind label %7

6:                                                ; preds = %5
  unreachable

7:                                                ; preds = %5
  %8 = landingpad { ptr, i32 }
          cleanup
  call void @_ZNSt11logic_errorD1Ev(ptr noundef nonnull align 8 dereferenceable(16) %3) #25
  call void @llvm.lifetime.end.p0(i64 16, ptr nonnull %3) #25
  resume { ptr, i32 } %8

9:                                                ; preds = %2
  tail call void @_ZN2cv19validate_input_argsERKSt6vectorINS_7GRunArgESaIS1_EE(ptr noundef nonnull align 8 dereferenceable(24) %1)
  ret void
}